; Function Attrs: nounwind uwtable
define void @ossl_namemap_free(ptr noundef %0) local_unnamed_addr #0 {
  %2 = icmp eq ptr %0, null
  br i1 %2, label %13, label %3

3:                                                ; preds = %1
  %4 = load i8, ptr %0, align 8
  %5 = and i8 %4, 1
  %.not = icmp eq i8 %5, 0
  br i1 %.not, label %6, label %13

6:                                                ; preds = %3
  %7 = getelementptr inbounds nuw i8, ptr %0, i64 24
  %8 = load ptr, ptr %7, align 8, !tbaa !16
  tail call void @OPENSSL_sk_pop_free(ptr noundef %8, ptr noundef nonnull @names_free) #6
  %9 = getelementptr inbounds nuw i8, ptr %0, i64 8
  %10 = load ptr, ptr %9, align 8, !tbaa !15
  tail call void @ossl_ht_free(ptr noundef %10) #6
  %11 = getelementptr inbounds nuw i8, ptr %0, i64 16
  %12 = load ptr, ptr %11, align 8, !tbaa !11
  tail call void @CRYPTO_THREAD_lock_free(ptr noundef %12) #6
  tail call void @CRYPTO_free(ptr noundef nonnull %0, ptr noundef nonnull @.str, i32 noundef 545) #6
  br label %13

13:                                               ; preds = %1, %3, %6
  ret void
}